; ModuleID = '7/934.c'
source_filename = "7/934.c"
target datalayout = "e-m:e-p270:32:32-p271:32:32-p272:64:64-i64:64-f80:128-n8:16:32:64-S128"
target triple = "x86_64-pc-linux-gnu"

@.str = private unnamed_addr constant [3 x i8] c"%s\00", align 1
@.str.1 = private unnamed_addr constant [3 x i8] c"%c\00", align 1

; Function Attrs: noinline nounwind uwtable
define dso_local i32 @main() #0 {
  %1 = alloca i32, align 4
  %2 = alloca [257 x i8], align 16
  %3 = alloca [257 x i8], align 16
  %4 = alloca [257 x i8], align 16
  %5 = alloca i32, align 4
  %6 = alloca i32, align 4
  %7 = alloca i32, align 4
  store i32 0, i32* %1, align 4
  %8 = getelementptr inbounds [257 x i8], [257 x i8]* %2, i64 0, i64 0
  %9 = call i32 (i8*, ...) bitcast (i32 (...)* @gets to i32 (i8*, ...)*)(i8* %8)
  %10 = getelementptr inbounds [257 x i8], [257 x i8]* %3, i64 0, i64 0
  %11 = call i32 (i8*, ...) bitcast (i32 (...)* @gets to i32 (i8*, ...)*)(i8* %10)
  %12 = getelementptr inbounds [257 x i8], [257 x i8]* %4, i64 0, i64 0
  %13 = call i32 (i8*, ...) bitcast (i32 (...)* @gets to i32 (i8*, ...)*)(i8* %12)
  store i32 0, i32* %5, align 4
  br label %14

14:                                               ; preds = %64, %0
  %15 = load i32, i32* %5, align 4
  %16 = sext i32 %15 to i64
  %17 = getelementptr inbounds [257 x i8], [257 x i8]* %2, i64 0, i64 0
  %18 = call i64 @strlen(i8* %17) #3
  %19 = icmp ult i64 %16, %18
  br i1 %19, label %20, label %67

20:                                               ; preds = %14
  store i32 0, i32* %6, align 4
  %21 = load i32, i32* %5, align 4
  store i32 %21, i32* %7, align 4
  br label %22

22:                                               ; preds = %44, %20
  %23 = load i32, i32* %6, align 4
  %24 = sext i32 %23 to i64
  %25 = getelementptr inbounds [257 x i8], [257 x i8]* %3, i64 0, i64 0
  %26 = call i64 @strlen(i8* %25) #3
  %27 = icmp ult i64 %24, %26
  br i1 %27, label %28, label %47

28:                                               ; preds = %22
  %29 = load i32, i32* %6, align 4
  %30 = sext i32 %29 to i64
  %31 = getelementptr inbounds [257 x i8], [257 x i8]* %3, i64 0, i64 %30
  %32 = load i8, i8* %31, align 1
  %33 = sext i8 %32 to i32
  %34 = load i32, i32* %7, align 4
  %35 = sext i32 %34 to i64
  %36 = getelementptr inbounds [257 x i8], [257 x i8]* %2, i64 0, i64 %35
  %37 = load i8, i8* %36, align 1
  %38 = sext i8 %37 to i32
  %39 = icmp ne i32 %33, %38
  br i1 %39, label %40, label %41

40:                                               ; preds = %28
  br label %47

41:                                               ; preds = %28
  %42 = load i32, i32* %6, align 4
  %43 = add nsw i32 %42, 1
  store i32 %43, i32* %6, align 4
  br label %44

44:                                               ; preds = %41
  %45 = load i32, i32* %7, align 4
  %46 = add nsw i32 %45, 1
  store i32 %46, i32* %7, align 4
  br label %22

47:                                               ; preds = %40, %22
  %48 = load i32, i32* %6, align 4
  %49 = sext i32 %48 to i64
  %50 = getelementptr inbounds [257 x i8], [257 x i8]* %3, i64 0, i64 0
  %51 = call i64 @strlen(i8* %50) #3
  %52 = icmp eq i64 %49, %51
  br i1 %52, label %53, label %56

53:                                               ; preds = %47
  %54 = getelementptr inbounds [257 x i8], [257 x i8]* %4, i64 0, i64 0
  %55 = call i32 (i8*, ...) @printf(i8* getelementptr inbounds ([3 x i8], [3 x i8]* @.str, i64 0, i64 0), i8* %54)
  br label %67

56:                                               ; preds = %47
  %57 = load i32, i32* %5, align 4
  %58 = sext i32 %57 to i64
  %59 = getelementptr inbounds [257 x i8], [257 x i8]* %2, i64 0, i64 %58
  %60 = load i8, i8* %59, align 1
  %61 = sext i8 %60 to i32
  %62 = call i32 (i8*, ...) @printf(i8* getelementptr inbounds ([3 x i8], [3 x i8]* @.str.1, i64 0, i64 0), i32 %61)
  br label %63

63:                                               ; preds = %56
  br label %64

64:                                               ; preds = %63
  %65 = load i32, i32* %5, align 4
  %66 = add nsw i32 %65, 1
  store i32 %66, i32* %5, align 4
  br label %14

67:                                               ; preds = %53, %14
  %68 = load i32, i32* %5, align 4
  %69 = sext i32 %68 to i64
  %70 = getelementptr inbounds [257 x i8], [257 x i8]* %2, i64 0, i64 0
  %71 = call i64 @strlen(i8* %70) #3
  %72 = icmp ne i64 %69, %71
  br i1 %72, label %73, label %92

73:                                               ; preds = %67
  %74 = load i32, i32* %7, align 4
  store i32 %74, i32* %5, align 4
  br label %75

75:                                               ; preds = %88, %73
  %76 = load i32, i32* %5, align 4
  %77 = sext i32 %76 to i64
  %78 = getelementptr inbounds [257 x i8], [257 x i8]* %2, i64 0, i64 0
  %79 = call i64 @strlen(i8* %78) #3
  %80 = icmp ult i64 %77, %79
  br i1 %80, label %81, label %91

81:                                               ; preds = %75
  %82 = load i32, i32* %5, align 4
  %83 = sext i32 %82 to i64
  %84 = getelementptr inbounds [257 x i8], [257 x i8]* %2, i64 0, i64 %83
  %85 = load i8, i8* %84, align 1
  %86 = sext i8 %85 to i32
  %87 = call i32 (i8*, ...) @printf(i8* getelementptr inbounds ([3 x i8], [3 x i8]* @.str.1, i64 0, i64 0), i32 %86)
  br label %88

88:                                               ; preds = %81
  %89 = load i32, i32* %5, align 4
  %90 = add nsw i32 %89, 1
  store i32 %90, i32* %5, align 4
  br label %75

91:                                               ; preds = %75
  br label %92

92:                                               ; preds = %91, %67
  ret i32 0
}

declare dso_local i32 @gets(...) #1

; Function Attrs: nounwind readonly
declare dso_local i64 @strlen(i8*) #2

declare dso_local i32 @printf(i8*, ...) #1


!llvm.module.flags = !{!0}
!llvm.ident = !{!1}

!0 = !{i32 1, !"wchar_size", i32 4}
!1 = !{!"clang version 10.0.0-4ubuntu1 "}
